target datalayout = "e-m:e-p270:32:32-p271:32:32-p272:64:64-i64:64-i128:128-f80:128-n8:16:32:64-S128"
target triple = "x86_64-pc-linux-gnu"

%"class.pbrt::Point2" = type { %"class.pbrt::Tuple2" }
%"class.pbrt::Tuple2" = type { i32, i32 }
%"struct.std::_Vector_base.4" = type { %"struct.std::_Vector_base<void (*)(pbrt::Point2<int>, int, pbrt::PixelStatsAccumulator &), std::allocator<void (*)(pbrt::Point2<int>, int, pbrt::PixelStatsAccumulator &)>>::_Vector_impl" }
%"struct.std::_Vector_base<void (*)(pbrt::Point2<int>, int, pbrt::PixelStatsAccumulator &), std::allocator<void (*)(pbrt::Point2<int>, int, pbrt::PixelStatsAccumulator &)>>::_Vector_impl" = type { %"struct.std::_Vector_base<void (*)(pbrt::Point2<int>, int, pbrt::PixelStatsAccumulator &), std::allocator<void (*)(pbrt::Point2<int>, int, pbrt::PixelStatsAccumulator &)>>::_Vector_impl_data" }
%"struct.std::_Vector_base<void (*)(pbrt::Point2<int>, int, pbrt::PixelStatsAccumulator &), std::allocator<void (*)(pbrt::Point2<int>, int, pbrt::PixelStatsAccumulator &)>>::_Vector_impl_data" = type { ptr, ptr, ptr }

@_ZN4pbrtL14pixelStatFuncsE = internal global ptr null, align 8

; Function Attrs: mustprogress nounwind uwtable
define linkonce_odr dso_local noundef nonnull align 8 dereferenceable(8) ptr @_ZNSt6vectorIPFvN4pbrt6Point2IiEEiRNS0_21PixelStatsAccumulatorEESaIS6_EEixEm(ptr noundef nonnull align 8 dereferenceable(24) %0, i64 noundef %1) #4 comdat align 2 {
  %3 = alloca ptr, align 8
  %4 = alloca i64, align 8
  store ptr %0, ptr %3, align 8, !tbaa !82
  store i64 %1, ptr %4, align 8, !tbaa !56
  %5 = load ptr, ptr %3, align 8
  %6 = getelementptr inbounds nuw %"struct.std::_Vector_base.4", ptr %5, i32 0, i32 0
  %7 = getelementptr inbounds nuw %"struct.std::_Vector_base<void (*)(pbrt::Point2<int>, int, pbrt::PixelStatsAccumulator &), std::allocator<void (*)(pbrt::Point2<int>, int, pbrt::PixelStatsAccumulator &)>>::_Vector_impl_data", ptr %6, i32 0, i32 0
  %8 = load ptr, ptr %7, align 8, !tbaa !99
  %9 = load i64, ptr %4, align 8, !tbaa !56
  %10 = getelementptr inbounds nuw ptr, ptr %8, i64 %9
  ret ptr %10
}

; Function Attrs: mustprogress nounwind uwtable
define linkonce_odr dso_local noundef i64 @_ZNKSt6vectorIPFvN4pbrt6Point2IiEEiRNS0_21PixelStatsAccumulatorEESaIS6_EE4sizeEv(ptr noundef nonnull align 8 dereferenceable(24) %0) #4 comdat align 2 {
  %2 = alloca ptr, align 8
  store ptr %0, ptr %2, align 8, !tbaa !82
  %3 = load ptr, ptr %2, align 8
  %4 = getelementptr inbounds nuw %"struct.std::_Vector_base.4", ptr %3, i32 0, i32 0
  %5 = getelementptr inbounds nuw %"struct.std::_Vector_base<void (*)(pbrt::Point2<int>, int, pbrt::PixelStatsAccumulator &), std::allocator<void (*)(pbrt::Point2<int>, int, pbrt::PixelStatsAccumulator &)>>::_Vector_impl_data", ptr %4, i32 0, i32 1
  %6 = load ptr, ptr %5, align 8, !tbaa !96
  %7 = getelementptr inbounds nuw %"struct.std::_Vector_base.4", ptr %3, i32 0, i32 0
  %8 = getelementptr inbounds nuw %"struct.std::_Vector_base<void (*)(pbrt::Point2<int>, int, pbrt::PixelStatsAccumulator &), std::allocator<void (*)(pbrt::Point2<int>, int, pbrt::PixelStatsAccumulator &)>>::_Vector_impl_data", ptr %7, i32 0, i32 0
  %9 = load ptr, ptr %8, align 8, !tbaa !99
  %10 = ptrtoint ptr %6 to i64
  %11 = ptrtoint ptr %9 to i64
  %12 = sub i64 %10, %11
  %13 = sdiv exact i64 %12, 8
  ret i64 %13
}

; Function Attrs: mustprogress uwtable
define dso_local void @_ZN4pbrt14StatRegisterer18CallPixelCallbacksENS_6Point2IiEERNS_21PixelStatsAccumulatorE(i64 %0, ptr noundef nonnull align 8 dereferenceable(8) %1) #1 align 2 {
  %3 = alloca %"class.pbrt::Point2", align 4
  %4 = alloca ptr, align 8
  %5 = alloca i64, align 8
  %6 = alloca %"class.pbrt::Point2", align 4
  %7 = getelementptr inbounds nuw %"class.pbrt::Point2", ptr %3, i32 0, i32 0
  store i64 %0, ptr %7, align 4
  store ptr %1, ptr %4, align 8, !tbaa !39
  call void @llvm.lifetime.start.p0(i64 8, ptr %5) #5
  store i64 0, ptr %5, align 8, !tbaa !56
  br label %8

8:                                                ; preds = %24, %2
  %9 = load i64, ptr %5, align 8, !tbaa !56
  %10 = load ptr, ptr @_ZN4pbrtL14pixelStatFuncsE, align 8, !tbaa !82
  %11 = call noundef i64 @_ZNKSt6vectorIPFvN4pbrt6Point2IiEEiRNS0_21PixelStatsAccumulatorEESaIS6_EE4sizeEv(ptr noundef nonnull align 8 dereferenceable(24) %10) #5
  %12 = icmp ult i64 %9, %11
  br i1 %12, label %14, label %13

13:                                               ; preds = %8
  call void @llvm.lifetime.end.p0(i64 8, ptr %5) #5
  br label %27

14:                                               ; preds = %8
  %15 = load ptr, ptr @_ZN4pbrtL14pixelStatFuncsE, align 8, !tbaa !82
  %16 = load i64, ptr %5, align 8, !tbaa !56
  %17 = call noundef nonnull align 8 dereferenceable(8) ptr @_ZNSt6vectorIPFvN4pbrt6Point2IiEEiRNS0_21PixelStatsAccumulatorEESaIS6_EEixEm(ptr noundef nonnull align 8 dereferenceable(24) %15, i64 noundef %16) #5
  %18 = load ptr, ptr %17, align 8, !tbaa !38
  call void @llvm.memcpy.p0.p0.i64(ptr align 4 %6, ptr align 4 %3, i64 8, i1 false)
  %19 = load i64, ptr %5, align 8, !tbaa !56
  %20 = trunc i64 %19 to i32
  %21 = load ptr, ptr %4, align 8, !tbaa !39
  %22 = getelementptr inbounds nuw %"class.pbrt::Point2", ptr %6, i32 0, i32 0
  %23 = load i64, ptr %22, align 4
  call void %18(i64 %23, i32 noundef %20, ptr noundef nonnull align 8 dereferenceable(8) %21)
  br label %24

24:                                               ; preds = %14
  %25 = load i64, ptr %5, align 8, !tbaa !56
  %26 = add i64 %25, 1
  store i64 %26, ptr %5, align 8, !tbaa !56
  br label %8, !llvm.loop !84

27:                                               ; preds = %13
  ret void
}