; Function Attrs: mustprogress uwtable
define dso_local void @_ZN4pbrt14StatRegisterer18CallPixelCallbacksENS_6Point2IiEERNS_21PixelStatsAccumulatorE(i64 %0, ptr noundef nonnull align 8 dereferenceable(8) %1) local_unnamed_addr #5 align 2 {
  %3 = load ptr, ptr @_ZN4pbrtL14pixelStatFuncsE, align 8, !tbaa !95
  %4 = getelementptr inbounds nuw i8, ptr %3, i64 8
  %5 = load ptr, ptr %4, align 8, !tbaa !97
  %6 = load ptr, ptr %3, align 8, !tbaa !99
  %.not = icmp eq ptr %5, %6
  br i1 %.not, label %._crit_edge, label %.lr.ph

._crit_edge:                                      ; preds = %.lr.ph, %2
  ret void

.lr.ph:                                           ; preds = %2, %.lr.ph
  %7 = phi ptr [ %15, %.lr.ph ], [ %6, %2 ]
  %.05 = phi i64 [ %11, %.lr.ph ], [ 0, %2 ]
  %8 = getelementptr inbounds nuw ptr, ptr %7, i64 %.05
  %9 = load ptr, ptr %8, align 8, !tbaa !39
  %10 = trunc i64 %.05 to i32
  tail call void %9(i64 %0, i32 noundef %10, ptr noundef nonnull align 8 dereferenceable(8) %1)
  %11 = add nuw i64 %.05, 1
  %12 = load ptr, ptr @_ZN4pbrtL14pixelStatFuncsE, align 8, !tbaa !95
  %13 = getelementptr inbounds nuw i8, ptr %12, i64 8
  %14 = load ptr, ptr %13, align 8, !tbaa !97
  %15 = load ptr, ptr %12, align 8, !tbaa !99
  %16 = ptrtoint ptr %14 to i64
  %17 = ptrtoint ptr %15 to i64
  %18 = sub i64 %16, %17
  %19 = ashr exact i64 %18, 3
  %20 = icmp ult i64 %11, %19
  br i1 %20, label %.lr.ph, label %._crit_edge, !llvm.loop !100
}